; Function Attrs: mustprogress nounwind uwtable
define hidden void @_ZN6hermes3sem17SemanticValidator5visitEPNS_6ESTree19YieldExpressionNodeE(ptr noundef nonnull align 8 dereferenceable(168) %this, ptr noundef %yieldExpr) local_unnamed_addr #0 align 2 {
entry:
  %ref.tmp = alloca %"class.llvh::Twine", align 8
  %ref.tmp13 = alloca %"class.llvh::Twine", align 8
  %funcCtx_.i = getelementptr inbounds nuw i8, ptr %this, i64 152
  %0 = load ptr, ptr %funcCtx_.i, align 8
  %oldContextValue_.i = getelementptr inbounds nuw i8, ptr %0, i64 8
  %1 = load ptr, ptr %oldContextValue_.i, align 8
  %tobool.not.i = icmp eq ptr %1, null
  br i1 %tobool.not.i, label %if.then, label %lor.lhs.false

lor.lhs.false:                                    ; preds = %entry
  %node = getelementptr inbounds nuw i8, ptr %0, i64 16
  %2 = load ptr, ptr %node, align 8
  %tobool.not = icmp eq ptr %2, null
  br i1 %tobool.not, label %if.end, label %land.lhs.true

land.lhs.true:                                    ; preds = %lor.lhs.false
  %call6 = tail call noundef zeroext i1 @_ZN6hermes6ESTree11isGeneratorEPNS0_16FunctionLikeNodeE(ptr noundef nonnull %2) #21
  br i1 %call6, label %if.end, label %if.then

if.then:                                          ; preds = %land.lhs.true, %entry
  %sm_ = getelementptr inbounds nuw i8, ptr %this, i64 8
  %3 = load ptr, ptr %sm_, align 8
  %sourceRange_.i = getelementptr inbounds nuw i8, ptr %yieldExpr, i64 24
  %retval.sroa.0.0.copyload.i = load ptr, ptr %sourceRange_.i, align 8
  %retval.sroa.2.0.sourceRange_.sroa_idx.i = getelementptr inbounds nuw i8, ptr %yieldExpr, i64 32
  %retval.sroa.2.0.copyload.i = load ptr, ptr %retval.sroa.2.0.sourceRange_.sroa_idx.i, align 8
  %LHSKind.i = getelementptr inbounds nuw i8, ptr %ref.tmp, i64 16
  %RHSKind.i = getelementptr inbounds nuw i8, ptr %ref.tmp, i64 17
  store i8 1, ptr %RHSKind.i, align 1
  store ptr @.str.40, ptr %ref.tmp, align 8
  store i8 3, ptr %LHSKind.i, align 8
  call void @_ZN6hermes18SourceErrorManager7messageENS0_8DiagKindEN4llvh7SMRangeERKNS2_5TwineENS_9SubsystemE(ptr noundef nonnull align 8 dereferenceable(464) %3, i32 noundef 0, ptr %retval.sroa.0.0.copyload.i, ptr %retval.sroa.2.0.copyload.i, ptr noundef nonnull align 8 dereferenceable(18) %ref.tmp, i32 noundef 0) #21
  br label %if.end

if.end:                                           ; preds = %if.then, %land.lhs.true, %lor.lhs.false
  %isFormalParams_ = getelementptr inbounds nuw i8, ptr %this, i64 160
  %4 = load i8, ptr %isFormalParams_, align 8
  %tobool8 = trunc i8 %4 to i1
  br i1 %tobool8, label %if.then9, label %if.end14

if.then9:                                         ; preds = %if.end
  %sm_10 = getelementptr inbounds nuw i8, ptr %this, i64 8
  %5 = load ptr, ptr %sm_10, align 8
  %sourceRange_.i5 = getelementptr inbounds nuw i8, ptr %yieldExpr, i64 24
  %retval.sroa.0.0.copyload.i6 = load ptr, ptr %sourceRange_.i5, align 8
  %retval.sroa.2.0.sourceRange_.sroa_idx.i7 = getelementptr inbounds nuw i8, ptr %yieldExpr, i64 32
  %retval.sroa.2.0.copyload.i8 = load ptr, ptr %retval.sroa.2.0.sourceRange_.sroa_idx.i7, align 8
  %LHSKind.i11 = getelementptr inbounds nuw i8, ptr %ref.tmp13, i64 16
  %RHSKind.i12 = getelementptr inbounds nuw i8, ptr %ref.tmp13, i64 17
  store i8 1, ptr %RHSKind.i12, align 1
  store ptr @.str.41, ptr %ref.tmp13, align 8
  store i8 3, ptr %LHSKind.i11, align 8
  call void @_ZN6hermes18SourceErrorManager7messageENS0_8DiagKindEN4llvh7SMRangeERKNS2_5TwineENS_9SubsystemE(ptr noundef nonnull align 8 dereferenceable(464) %5, i32 noundef 0, ptr %retval.sroa.0.0.copyload.i6, ptr %retval.sroa.2.0.copyload.i8, ptr noundef nonnull align 8 dereferenceable(18) %ref.tmp13, i32 noundef 0) #21
  br label %if.end14

if.end14:                                         ; preds = %if.then9, %if.end
  %_argument.i = getelementptr inbounds nuw i8, ptr %yieldExpr, i64 48
  %6 = load ptr, ptr %_argument.i, align 8
  %call.i = call { ptr, i8 } @_ZN6hermes6ESTree24RecursiveVisitorDispatchINS_3sem17SemanticValidatorELb1EE5visitERS3_PNS0_4NodeES7_(ptr noundef nonnull align 8 dereferenceable(168) %this, ptr noundef %6, ptr noundef %yieldExpr)
  ret void
}